; Function Attrs: mustprogress nofree nounwind willreturn memory(argmem: read) uwtable
define hidden noundef i32 @_ZN3ue23cmpEPKcS1_mb(ptr noundef readonly %0, ptr noundef readonly captures(none) %1, i64 noundef %2, i1 noundef zeroext %3) local_unnamed_addr #3 {
  br i1 %3, label %7, label %5

5:                                                ; preds = %4
  %6 = tail call i32 @memcmp(ptr noundef %0, ptr noundef %1, i64 noundef %2) #23
  br label %._crit_edge

7:                                                ; preds = %4
  %8 = getelementptr inbounds nuw i8, ptr %0, i64 %2
  %.not1819.not = icmp eq i64 %2, 0
  br i1 %.not1819.not, label %._crit_edge, label %.lr.ph

.lr.ph:                                           ; preds = %7, %17
  %.01421 = phi ptr [ %18, %17 ], [ %0, %7 ]
  %.01520 = phi ptr [ %19, %17 ], [ %1, %7 ]
  %9 = load i8, ptr %.01421, align 1
  %10 = add i8 %9, -123
  %11 = icmp ult i8 %10, -26
  %12 = add i8 %9, -32
  %.0.i17 = select i1 %11, i8 %9, i8 %12
  %13 = load i8, ptr %.01520, align 1
  %14 = add i8 %13, -123
  %15 = icmp ult i8 %14, -26
  %16 = add i8 %13, -32
  %.0.i = select i1 %15, i8 %13, i8 %16
  %.not = icmp eq i8 %.0.i17, %.0.i
  br i1 %.not, label %17, label %._crit_edge

17:                                               ; preds = %.lr.ph
  %18 = getelementptr inbounds nuw i8, ptr %.01421, i64 1
  %19 = getelementptr inbounds nuw i8, ptr %.01520, i64 1
  %.not18 = icmp ult ptr %18, %8
  br i1 %.not18, label %.lr.ph, label %._crit_edge, !llvm.loop !5

._crit_edge:                                      ; preds = %.lr.ph, %17, %7, %5
  %.013 = phi i32 [ %6, %5 ], [ 0, %7 ], [ 1, %.lr.ph ], [ 0, %17 ]
  ret i32 %.013
}